target datalayout = "e-m:e-p270:32:32-p271:32:32-p272:64:64-i64:64-i128:128-f80:128-n8:16:32:64-S128"
target triple = "x86_64-pc-linux-gnu"

%struct.Matrix = type { float, float, float, float, float, float, float, float, float, float, float, float, float, float, float, float }
%struct.Vector4 = type { float, float, float, float }

; Function Attrs: nounwind uwtable
define void @QuaternionToMatrix(ptr dead_on_unwind noalias writable sret(%struct.Matrix) align 4 %0, <2 x float> %1, <2 x float> %2) #9 {
  %4 = alloca %struct.Vector4, align 4
  %5 = alloca float, align 4
  %6 = alloca float, align 4
  %7 = alloca float, align 4
  %8 = alloca float, align 4
  %9 = alloca float, align 4
  %10 = alloca float, align 4
  %11 = alloca float, align 4
  %12 = alloca float, align 4
  %13 = alloca float, align 4
  %14 = getelementptr inbounds nuw { <2 x float>, <2 x float> }, ptr %4, i32 0, i32 0
  store <2 x float> %1, ptr %14, align 4
  %15 = getelementptr inbounds nuw { <2 x float>, <2 x float> }, ptr %4, i32 0, i32 1
  store <2 x float> %2, ptr %15, align 4
  call void @llvm.memset.p0.i64(ptr align 4 %0, i8 0, i64 64, i1 false)
  %16 = getelementptr inbounds %struct.Matrix, ptr %0, i32 0, i32 0
  store float 1.000000e+00, ptr %16, align 4
  %17 = getelementptr inbounds %struct.Matrix, ptr %0, i32 0, i32 5
  store float 1.000000e+00, ptr %17, align 4
  %18 = getelementptr inbounds %struct.Matrix, ptr %0, i32 0, i32 10
  store float 1.000000e+00, ptr %18, align 4
  %19 = getelementptr inbounds %struct.Matrix, ptr %0, i32 0, i32 15
  store float 1.000000e+00, ptr %19, align 4
  call void @llvm.lifetime.start.p0(i64 4, ptr %5) #16
  %20 = getelementptr inbounds nuw %struct.Vector4, ptr %4, i32 0, i32 0
  %21 = load float, ptr %20, align 4
  %22 = getelementptr inbounds nuw %struct.Vector4, ptr %4, i32 0, i32 0
  %23 = load float, ptr %22, align 4
  %24 = fmul float %21, %23
  store float %24, ptr %5, align 4
  call void @llvm.lifetime.start.p0(i64 4, ptr %6) #16
  %25 = getelementptr inbounds nuw %struct.Vector4, ptr %4, i32 0, i32 1
  %26 = load float, ptr %25, align 4
  %27 = getelementptr inbounds nuw %struct.Vector4, ptr %4, i32 0, i32 1
  %28 = load float, ptr %27, align 4
  %29 = fmul float %26, %28
  store float %29, ptr %6, align 4
  call void @llvm.lifetime.start.p0(i64 4, ptr %7) #16
  %30 = getelementptr inbounds nuw %struct.Vector4, ptr %4, i32 0, i32 2
  %31 = load float, ptr %30, align 4
  %32 = getelementptr inbounds nuw %struct.Vector4, ptr %4, i32 0, i32 2
  %33 = load float, ptr %32, align 4
  %34 = fmul float %31, %33
  store float %34, ptr %7, align 4
  call void @llvm.lifetime.start.p0(i64 4, ptr %8) #16
  %35 = getelementptr inbounds nuw %struct.Vector4, ptr %4, i32 0, i32 0
  %36 = load float, ptr %35, align 4
  %37 = getelementptr inbounds nuw %struct.Vector4, ptr %4, i32 0, i32 2
  %38 = load float, ptr %37, align 4
  %39 = fmul float %36, %38
  store float %39, ptr %8, align 4
  call void @llvm.lifetime.start.p0(i64 4, ptr %9) #16
  %40 = getelementptr inbounds nuw %struct.Vector4, ptr %4, i32 0, i32 0
  %41 = load float, ptr %40, align 4
  %42 = getelementptr inbounds nuw %struct.Vector4, ptr %4, i32 0, i32 1
  %43 = load float, ptr %42, align 4
  %44 = fmul float %41, %43
  store float %44, ptr %9, align 4
  call void @llvm.lifetime.start.p0(i64 4, ptr %10) #16
  %45 = getelementptr inbounds nuw %struct.Vector4, ptr %4, i32 0, i32 1
  %46 = load float, ptr %45, align 4
  %47 = getelementptr inbounds nuw %struct.Vector4, ptr %4, i32 0, i32 2
  %48 = load float, ptr %47, align 4
  %49 = fmul float %46, %48
  store float %49, ptr %10, align 4
  call void @llvm.lifetime.start.p0(i64 4, ptr %11) #16
  %50 = getelementptr inbounds nuw %struct.Vector4, ptr %4, i32 0, i32 3
  %51 = load float, ptr %50, align 4
  %52 = getelementptr inbounds nuw %struct.Vector4, ptr %4, i32 0, i32 0
  %53 = load float, ptr %52, align 4
  %54 = fmul float %51, %53
  store float %54, ptr %11, align 4
  call void @llvm.lifetime.start.p0(i64 4, ptr %12) #16
  %55 = getelementptr inbounds nuw %struct.Vector4, ptr %4, i32 0, i32 3
  %56 = load float, ptr %55, align 4
  %57 = getelementptr inbounds nuw %struct.Vector4, ptr %4, i32 0, i32 1
  %58 = load float, ptr %57, align 4
  %59 = fmul float %56, %58
  store float %59, ptr %12, align 4
  call void @llvm.lifetime.start.p0(i64 4, ptr %13) #16
  %60 = getelementptr inbounds nuw %struct.Vector4, ptr %4, i32 0, i32 3
  %61 = load float, ptr %60, align 4
  %62 = getelementptr inbounds nuw %struct.Vector4, ptr %4, i32 0, i32 2
  %63 = load float, ptr %62, align 4
  %64 = fmul float %61, %63
  store float %64, ptr %13, align 4
  %65 = load float, ptr %6, align 4
  %66 = load float, ptr %7, align 4
  %67 = fadd float %65, %66
  %68 = call float @llvm.fmuladd.f32(float -2.000000e+00, float %67, float 1.000000e+00)
  %69 = getelementptr inbounds nuw %struct.Matrix, ptr %0, i32 0, i32 0
  store float %68, ptr %69, align 4
  %70 = load float, ptr %9, align 4
  %71 = load float, ptr %13, align 4
  %72 = fadd float %70, %71
  %73 = fmul float 2.000000e+00, %72
  %74 = getelementptr inbounds nuw %struct.Matrix, ptr %0, i32 0, i32 4
  store float %73, ptr %74, align 4
  %75 = load float, ptr %8, align 4
  %76 = load float, ptr %12, align 4
  %77 = fsub float %75, %76
  %78 = fmul float 2.000000e+00, %77
  %79 = getelementptr inbounds nuw %struct.Matrix, ptr %0, i32 0, i32 8
  store float %78, ptr %79, align 4
  %80 = load float, ptr %9, align 4
  %81 = load float, ptr %13, align 4
  %82 = fsub float %80, %81
  %83 = fmul float 2.000000e+00, %82
  %84 = getelementptr inbounds nuw %struct.Matrix, ptr %0, i32 0, i32 1
  store float %83, ptr %84, align 4
  %85 = load float, ptr %5, align 4
  %86 = load float, ptr %7, align 4
  %87 = fadd float %85, %86
  %88 = call float @llvm.fmuladd.f32(float -2.000000e+00, float %87, float 1.000000e+00)
  %89 = getelementptr inbounds nuw %struct.Matrix, ptr %0, i32 0, i32 5
  store float %88, ptr %89, align 4
  %90 = load float, ptr %10, align 4
  %91 = load float, ptr %11, align 4
  %92 = fadd float %90, %91
  %93 = fmul float 2.000000e+00, %92
  %94 = getelementptr inbounds nuw %struct.Matrix, ptr %0, i32 0, i32 9
  store float %93, ptr %94, align 4
  %95 = load float, ptr %8, align 4
  %96 = load float, ptr %12, align 4
  %97 = fadd float %95, %96
  %98 = fmul float 2.000000e+00, %97
  %99 = getelementptr inbounds nuw %struct.Matrix, ptr %0, i32 0, i32 2
  store float %98, ptr %99, align 4
  %100 = load float, ptr %10, align 4
  %101 = load float, ptr %11, align 4
  %102 = fsub float %100, %101
  %103 = fmul float 2.000000e+00, %102
  %104 = getelementptr inbounds nuw %struct.Matrix, ptr %0, i32 0, i32 6
  store float %103, ptr %104, align 4
  %105 = load float, ptr %5, align 4
  %106 = load float, ptr %6, align 4
  %107 = fadd float %105, %106
  %108 = call float @llvm.fmuladd.f32(float -2.000000e+00, float %107, float 1.000000e+00)
  %109 = getelementptr inbounds nuw %struct.Matrix, ptr %0, i32 0, i32 10
  store float %108, ptr %109, align 4
  call void @llvm.lifetime.end.p0(i64 4, ptr %13) #16
  call void @llvm.lifetime.end.p0(i64 4, ptr %12) #16
  call void @llvm.lifetime.end.p0(i64 4, ptr %11) #16
  call void @llvm.lifetime.end.p0(i64 4, ptr %10) #16
  call void @llvm.lifetime.end.p0(i64 4, ptr %9) #16
  call void @llvm.lifetime.end.p0(i64 4, ptr %8) #16
  call void @llvm.lifetime.end.p0(i64 4, ptr %7) #16
  call void @llvm.lifetime.end.p0(i64 4, ptr %6) #16
  call void @llvm.lifetime.end.p0(i64 4, ptr %5) #16
  ret void
}