; Function Attrs: mustprogress nofree norecurse nosync nounwind willreturn memory(argmem: write) uwtable
define void @QuaternionToMatrix(ptr dead_on_unwind noalias writable writeonly sret(%struct.Matrix) align 4 captures(none) initializes((0, 64)) %0, <2 x float> %1, <2 x float> %2) local_unnamed_addr #24 {
  %4 = getelementptr inbounds nuw i8, ptr %0, i64 12
  tail call void @llvm.memset.p0.i64(ptr noundef nonnull align 4 dereferenceable(64) %4, i8 0, i64 48, i1 false)
  %5 = getelementptr inbounds nuw i8, ptr %0, i64 20
  %6 = getelementptr inbounds nuw i8, ptr %0, i64 40
  %7 = getelementptr inbounds nuw i8, ptr %0, i64 60
  store float 1.000000e+00, ptr %7, align 4
  %.sroa.0.0.vec.extract = extractelement <2 x float> %1, i64 0
  %8 = fmul <2 x float> %1, %1
  %9 = extractelement <2 x float> %8, i64 0
  %.sroa.0.4.vec.extract = extractelement <2 x float> %1, i64 1
  %10 = fmul float %.sroa.0.4.vec.extract, %.sroa.0.4.vec.extract
  %.sroa.11.8.vec.extract = extractelement <2 x float> %2, i64 0
  %11 = fmul <2 x float> %2, %2
  %12 = extractelement <2 x float> %11, i64 0
  %13 = fmul <2 x float> %1, %2
  %14 = extractelement <2 x float> %13, i64 0
  %15 = fmul float %.sroa.0.0.vec.extract, %.sroa.0.4.vec.extract
  %16 = fmul float %.sroa.0.4.vec.extract, %.sroa.11.8.vec.extract
  %.sroa.11.12.vec.extract = extractelement <2 x float> %2, i64 1
  %17 = fmul float %.sroa.0.0.vec.extract, %.sroa.11.12.vec.extract
  %18 = fmul float %.sroa.0.4.vec.extract, %.sroa.11.12.vec.extract
  %19 = fmul float %.sroa.11.12.vec.extract, %.sroa.11.8.vec.extract
  %20 = fadd float %10, %12
  %21 = tail call float @llvm.fmuladd.f32(float %20, float -2.000000e+00, float 1.000000e+00)
  store float %21, ptr %0, align 4
  %22 = fadd float %15, %19
  %23 = fmul float %22, 2.000000e+00
  %24 = getelementptr inbounds nuw i8, ptr %0, i64 16
  store float %23, ptr %24, align 4
  %25 = fsub float %14, %18
  %26 = fmul float %25, 2.000000e+00
  %27 = getelementptr inbounds nuw i8, ptr %0, i64 32
  store float %26, ptr %27, align 4
  %28 = fsub float %15, %19
  %29 = fmul float %28, 2.000000e+00
  %30 = getelementptr inbounds nuw i8, ptr %0, i64 4
  store float %29, ptr %30, align 4
  %31 = fadd <2 x float> %8, %11
  %32 = extractelement <2 x float> %31, i64 0
  %33 = tail call float @llvm.fmuladd.f32(float %32, float -2.000000e+00, float 1.000000e+00)
  store float %33, ptr %5, align 4
  %34 = fadd float %16, %17
  %35 = fmul float %34, 2.000000e+00
  %36 = getelementptr inbounds nuw i8, ptr %0, i64 36
  store float %35, ptr %36, align 4
  %37 = fadd float %14, %18
  %38 = fmul float %37, 2.000000e+00
  %39 = getelementptr inbounds nuw i8, ptr %0, i64 8
  store float %38, ptr %39, align 4
  %40 = fsub float %16, %17
  %41 = fmul float %40, 2.000000e+00
  %42 = getelementptr inbounds nuw i8, ptr %0, i64 24
  store float %41, ptr %42, align 4
  %43 = fadd float %9, %10
  %44 = tail call float @llvm.fmuladd.f32(float %43, float -2.000000e+00, float 1.000000e+00)
  store float %44, ptr %6, align 4
  ret void
}